; Function Attrs: mustprogress uwtable
define internal fastcc void @_ZZN3dap6TypeOfINS_31SetExceptionBreakpointsResponseEE4typeEvEN2TIC2Ev() unnamed_addr #1 align 2 personality ptr @__gxx_personality_v0 {
  %1 = alloca %"class.std::__cxx11::basic_string", align 8
  %2 = alloca %"class.std::allocator", align 1
  call void @_ZNSaIcEC1Ev(ptr noundef nonnull align 1 dereferenceable(1) %2) #18
  %3 = invoke noundef ptr @_ZNSt7__cxx1112basic_stringIcSt11char_traitsIcESaIcEE13_M_local_dataEv(ptr noundef nonnull align 8 dereferenceable(32) %1)
          to label %.noexc unwind label %6

.noexc:                                           ; preds = %0
  invoke void @_ZNSt7__cxx1112basic_stringIcSt11char_traitsIcESaIcEE12_Alloc_hiderC1EPcRKS3_(ptr noundef nonnull align 8 dereferenceable(8) %1, ptr noundef %3, ptr noundef nonnull align 1 dereferenceable(1) %2)
          to label %.noexc2 unwind label %6

.noexc2:                                          ; preds = %.noexc
  invoke void @_ZNSt7__cxx1112basic_stringIcSt11char_traitsIcESaIcEE12_M_constructIPKcEEvT_S8_St20forward_iterator_tag(ptr noundef nonnull align 8 dereferenceable(32) %1, ptr noundef nonnull @.str.76, ptr noundef nonnull @.str.76)
          to label %_ZNSt7__cxx1112basic_stringIcSt11char_traitsIcESaIcEEC2IS3_EEPKcRKS3_.exit unwind label %4

4:                                                ; preds = %.noexc2
  %5 = landingpad { ptr, i32 }
          cleanup
  call void @_ZNSaIcED2Ev(ptr noundef nonnull align 1 dereferenceable(1) %1) #18
  br label %.body

_ZNSt7__cxx1112basic_stringIcSt11char_traitsIcESaIcEEC2IS3_EEPKcRKS3_.exit: ; preds = %.noexc2
  store ptr getelementptr inbounds ({ [12 x ptr] }, ptr @_ZTVN3dap13BasicTypeInfoINS_31SetExceptionBreakpointsResponseEEE, i64 0, i32 0, i64 2), ptr @_ZZN3dap6TypeOfINS_31SetExceptionBreakpointsResponseEE4typeEvE8typeinfo, align 8
  call void @_ZNSt7__cxx1112basic_stringIcSt11char_traitsIcESaIcEEC1EOS4_(ptr noundef nonnull align 8 dereferenceable(32) getelementptr inbounds (%struct.TI.198, ptr @_ZZN3dap6TypeOfINS_31SetExceptionBreakpointsResponseEE4typeEvE8typeinfo, i64 0, i32 0, i32 1, i32 0, i32 0), ptr noundef nonnull align 8 dereferenceable(32) %1) #18
  call void @_ZNSt7__cxx1112basic_stringIcSt11char_traitsIcESaIcEED1Ev(ptr noundef nonnull align 8 dereferenceable(32) %1) #18
  call void @_ZNSaIcED1Ev(ptr noundef nonnull align 1 dereferenceable(1) %2) #18
  store ptr getelementptr inbounds ({ [12 x ptr] }, ptr @_ZTVZN3dap6TypeOfINS_31SetExceptionBreakpointsResponseEE4typeEvE2TI, i64 0, i32 0, i64 2), ptr @_ZZN3dap6TypeOfINS_31SetExceptionBreakpointsResponseEE4typeEvE8typeinfo, align 8
  ret void

6:                                                ; preds = %.noexc, %0
  %7 = landingpad { ptr, i32 }
          cleanup
  br label %.body

.body:                                            ; preds = %4, %6
  %eh.lpad-body = phi { ptr, i32 } [ %7, %6 ], [ %5, %4 ]
  call void @_ZNSaIcED1Ev(ptr noundef nonnull align 1 dereferenceable(1) %2) #18
  resume { ptr, i32 } %eh.lpad-body
}